target datalayout = "e-m:e-p270:32:32-p271:32:32-p272:64:64-i64:64-i128:128-f80:128-n8:16:32:64-S128"
target triple = "x86_64-pc-linux-gnu"

%struct.pmix_list_t = type { %struct.pmix_object_t, %struct.pmix_list_item_t, i64 }
%struct.pmix_object_t = type { %union.pthread_mutex_t, ptr, i32, %struct.pmix_tma }
%union.pthread_mutex_t = type { %struct.__pthread_mutex_s }
%struct.__pthread_mutex_s = type { i32, i32, i32, i32, i32, i16, i16, %struct.__pthread_internal_list }
%struct.__pthread_internal_list = type { ptr, ptr }
%struct.pmix_tma = type { ptr, ptr, ptr, ptr, ptr, ptr, ptr, ptr }
%struct.pmix_list_item_t = type { %struct.pmix_object_t, ptr, ptr, i32 }
%struct.prte_node_t = type { %struct.pmix_list_item_t, i32, ptr, ptr, ptr, ptr, ptr, ptr, i16, ptr, i16, i8, i32, i32, i32, i32, ptr, i8, %struct.pmix_list_t }

@.str = private unnamed_addr constant [12 x i8] c"Flags: NONE\00", align 1
@.str.1 = private unnamed_addr constant [16 x i8] c"DAEMON_LAUNCHED\00", align 1
@.str.2 = private unnamed_addr constant [18 x i8] c"LOCATION_VERIFIED\00", align 1
@.str.3 = private unnamed_addr constant [15 x i8] c"OVERSUBSCRIBED\00", align 1
@.str.4 = private unnamed_addr constant [7 x i8] c"MAPPED\00", align 1
@.str.5 = private unnamed_addr constant [12 x i8] c"SLOTS_GIVEN\00", align 1
@.str.6 = private unnamed_addr constant [10 x i8] c"NONUSABLE\00", align 1
@.str.7 = private unnamed_addr constant [10 x i8] c"Flags: %s\00", align 1

; Function Attrs: nounwind uwtable
define ptr @prte_ras_base_flag_string(ptr noundef %0) #0 {
  %2 = alloca ptr, align 8
  %3 = alloca ptr, align 8
  %4 = alloca ptr, align 8
  %5 = alloca ptr, align 8
  %6 = alloca ptr, align 8
  %7 = alloca i32, align 4
  store ptr %0, ptr %3, align 8, !tbaa !3
  call void @llvm.lifetime.start.p0(i64 8, ptr %4) #12
  call void @llvm.lifetime.start.p0(i64 8, ptr %5) #12
  call void @llvm.lifetime.start.p0(i64 8, ptr %6) #12
  store ptr null, ptr %6, align 8, !tbaa !7
  %8 = load ptr, ptr %3, align 8, !tbaa !3
  %9 = getelementptr inbounds nuw %struct.prte_node_t, ptr %8, i32 0, i32 17
  %10 = load i8, ptr %9, align 8, !tbaa !9
  %11 = zext i8 %10 to i32
  %12 = icmp eq i32 0, %11
  br i1 %12, label %13, label %16

13:                                               ; preds = %1
  %14 = call noalias ptr @strdup(ptr noundef @.str) #12
  store ptr %14, ptr %4, align 8, !tbaa !24
  %15 = load ptr, ptr %4, align 8, !tbaa !24
  store ptr %15, ptr %2, align 8
  store i32 1, ptr %7, align 4
  br label %84

16:                                               ; preds = %1
  %17 = load ptr, ptr %3, align 8, !tbaa !3
  %18 = getelementptr inbounds nuw %struct.prte_node_t, ptr %17, i32 0, i32 17
  %19 = load i8, ptr %18, align 8, !tbaa !9
  %20 = zext i8 %19 to i32
  %21 = and i32 %20, 1
  %22 = icmp ne i32 %21, 0
  br i1 %22, label %23, label %25

23:                                               ; preds = %16
  %24 = call i32 @PMIx_Argv_append_nosize(ptr noundef %6, ptr noundef @.str.1)
  br label %25

25:                                               ; preds = %23, %16
  %26 = load ptr, ptr %3, align 8, !tbaa !3
  %27 = getelementptr inbounds nuw %struct.prte_node_t, ptr %26, i32 0, i32 17
  %28 = load i8, ptr %27, align 8, !tbaa !9
  %29 = zext i8 %28 to i32
  %30 = and i32 %29, 2
  %31 = icmp ne i32 %30, 0
  br i1 %31, label %32, label %34

32:                                               ; preds = %25
  %33 = call i32 @PMIx_Argv_append_nosize(ptr noundef %6, ptr noundef @.str.2)
  br label %34

34:                                               ; preds = %32, %25
  %35 = load ptr, ptr %3, align 8, !tbaa !3
  %36 = getelementptr inbounds nuw %struct.prte_node_t, ptr %35, i32 0, i32 17
  %37 = load i8, ptr %36, align 8, !tbaa !9
  %38 = zext i8 %37 to i32
  %39 = and i32 %38, 4
  %40 = icmp ne i32 %39, 0
  br i1 %40, label %41, label %43

41:                                               ; preds = %34
  %42 = call i32 @PMIx_Argv_append_nosize(ptr noundef %6, ptr noundef @.str.3)
  br label %43

43:                                               ; preds = %41, %34
  %44 = load ptr, ptr %3, align 8, !tbaa !3
  %45 = getelementptr inbounds nuw %struct.prte_node_t, ptr %44, i32 0, i32 17
  %46 = load i8, ptr %45, align 8, !tbaa !9
  %47 = zext i8 %46 to i32
  %48 = and i32 %47, 8
  %49 = icmp ne i32 %48, 0
  br i1 %49, label %50, label %52

50:                                               ; preds = %43
  %51 = call i32 @PMIx_Argv_append_nosize(ptr noundef %6, ptr noundef @.str.4)
  br label %52

52:                                               ; preds = %50, %43
  %53 = load ptr, ptr %3, align 8, !tbaa !3
  %54 = getelementptr inbounds nuw %struct.prte_node_t, ptr %53, i32 0, i32 17
  %55 = load i8, ptr %54, align 8, !tbaa !9
  %56 = zext i8 %55 to i32
  %57 = and i32 %56, 16
  %58 = icmp ne i32 %57, 0
  br i1 %58, label %59, label %61

59:                                               ; preds = %52
  %60 = call i32 @PMIx_Argv_append_nosize(ptr noundef %6, ptr noundef @.str.5)
  br label %61

61:                                               ; preds = %59, %52
  %62 = load ptr, ptr %3, align 8, !tbaa !3
  %63 = getelementptr inbounds nuw %struct.prte_node_t, ptr %62, i32 0, i32 17
  %64 = load i8, ptr %63, align 8, !tbaa !9
  %65 = zext i8 %64 to i32
  %66 = and i32 %65, 32
  %67 = icmp ne i32 %66, 0
  br i1 %67, label %68, label %70

68:                                               ; preds = %61
  %69 = call i32 @PMIx_Argv_append_nosize(ptr noundef %6, ptr noundef @.str.6)
  br label %70

70:                                               ; preds = %68, %61
  %71 = load ptr, ptr %6, align 8, !tbaa !7
  %72 = icmp ne ptr null, %71
  br i1 %72, label %73, label %80

73:                                               ; preds = %70
  %74 = load ptr, ptr %6, align 8, !tbaa !7
  %75 = call ptr @PMIx_Argv_join(ptr noundef %74, i32 noundef 58)
  store ptr %75, ptr %5, align 8, !tbaa !24
  %76 = load ptr, ptr %5, align 8, !tbaa !24
  %77 = call i32 (ptr, ptr, ...) @pmix_asprintf(ptr noundef %4, ptr noundef @.str.7, ptr noundef %76)
  %78 = load ptr, ptr %5, align 8, !tbaa !24
  call void @free(ptr noundef %78) #12
  %79 = load ptr, ptr %6, align 8, !tbaa !7
  call void @PMIx_Argv_free(ptr noundef %79)
  br label %82

80:                                               ; preds = %70
  %81 = call noalias ptr @strdup(ptr noundef @.str) #12
  store ptr %81, ptr %4, align 8, !tbaa !24
  br label %82

82:                                               ; preds = %80, %73
  %83 = load ptr, ptr %4, align 8, !tbaa !24
  store ptr %83, ptr %2, align 8
  store i32 1, ptr %7, align 4
  br label %84

84:                                               ; preds = %82, %13
  call void @llvm.lifetime.end.p0(i64 8, ptr %6) #12
  call void @llvm.lifetime.end.p0(i64 8, ptr %5) #12
  call void @llvm.lifetime.end.p0(i64 8, ptr %4) #12
  %85 = load ptr, ptr %2, align 8
  ret ptr %85
}