; Function Attrs: nounwind uwtable
define ptr @prte_ras_base_flag_string(ptr noundef readonly captures(none) %0) local_unnamed_addr #0 {
  %2 = alloca ptr, align 8
  %3 = alloca ptr, align 8
  call void @llvm.lifetime.start.p0(i64 8, ptr nonnull %2) #15
  call void @llvm.lifetime.start.p0(i64 8, ptr nonnull %3) #15
  store ptr null, ptr %3, align 8, !tbaa !3
  %4 = getelementptr inbounds nuw i8, ptr %0, i64 248
  %5 = load i8, ptr %4, align 8, !tbaa !8
  %6 = icmp eq i8 %5, 0
  br i1 %6, label %7, label %9

7:                                                ; preds = %1
  %8 = tail call noalias dereferenceable_or_null(12) ptr @strdup(ptr noundef nonnull @.str) #15
  br label %46

9:                                                ; preds = %1
  %10 = and i8 %5, 1
  %.not = icmp eq i8 %10, 0
  br i1 %.not, label %13, label %11

11:                                               ; preds = %9
  %12 = call i32 @PMIx_Argv_append_nosize(ptr noundef nonnull %3, ptr noundef nonnull @.str.1) #15
  %.pre = load i8, ptr %4, align 8, !tbaa !8
  br label %13

13:                                               ; preds = %11, %9
  %14 = phi i8 [ %.pre, %11 ], [ %5, %9 ]
  %15 = and i8 %14, 2
  %.not12 = icmp eq i8 %15, 0
  br i1 %.not12, label %18, label %16

16:                                               ; preds = %13
  %17 = call i32 @PMIx_Argv_append_nosize(ptr noundef nonnull %3, ptr noundef nonnull @.str.2) #15
  %.pre18 = load i8, ptr %4, align 8, !tbaa !8
  br label %18

18:                                               ; preds = %16, %13
  %19 = phi i8 [ %.pre18, %16 ], [ %14, %13 ]
  %20 = and i8 %19, 4
  %.not13 = icmp eq i8 %20, 0
  br i1 %.not13, label %23, label %21

21:                                               ; preds = %18
  %22 = call i32 @PMIx_Argv_append_nosize(ptr noundef nonnull %3, ptr noundef nonnull @.str.3) #15
  %.pre19 = load i8, ptr %4, align 8, !tbaa !8
  br label %23

23:                                               ; preds = %21, %18
  %24 = phi i8 [ %.pre19, %21 ], [ %19, %18 ]
  %25 = and i8 %24, 8
  %.not14 = icmp eq i8 %25, 0
  br i1 %.not14, label %28, label %26

26:                                               ; preds = %23
  %27 = call i32 @PMIx_Argv_append_nosize(ptr noundef nonnull %3, ptr noundef nonnull @.str.4) #15
  %.pre20 = load i8, ptr %4, align 8, !tbaa !8
  br label %28

28:                                               ; preds = %26, %23
  %29 = phi i8 [ %.pre20, %26 ], [ %24, %23 ]
  %30 = and i8 %29, 16
  %.not15 = icmp eq i8 %30, 0
  br i1 %.not15, label %33, label %31

31:                                               ; preds = %28
  %32 = call i32 @PMIx_Argv_append_nosize(ptr noundef nonnull %3, ptr noundef nonnull @.str.5) #15
  %.pre21 = load i8, ptr %4, align 8, !tbaa !8
  br label %33

33:                                               ; preds = %31, %28
  %34 = phi i8 [ %.pre21, %31 ], [ %29, %28 ]
  %35 = and i8 %34, 32
  %.not16 = icmp eq i8 %35, 0
  br i1 %.not16, label %38, label %36

36:                                               ; preds = %33
  %37 = call i32 @PMIx_Argv_append_nosize(ptr noundef nonnull %3, ptr noundef nonnull @.str.6) #15
  br label %38

38:                                               ; preds = %36, %33
  %39 = load ptr, ptr %3, align 8, !tbaa !3
  %.not17 = icmp eq ptr %39, null
  br i1 %.not17, label %44, label %40

40:                                               ; preds = %38
  %41 = call ptr @PMIx_Argv_join(ptr noundef nonnull %39, i32 noundef 58) #15
  %42 = call i32 (ptr, ptr, ...) @pmix_asprintf(ptr noundef nonnull %2, ptr noundef nonnull @.str.7, ptr noundef %41) #15
  call void @free(ptr noundef %41) #15
  %43 = load ptr, ptr %3, align 8, !tbaa !3
  call void @PMIx_Argv_free(ptr noundef %43) #15
  %.pre22 = load ptr, ptr %2, align 8, !tbaa !23
  br label %46

44:                                               ; preds = %38
  %45 = call noalias dereferenceable_or_null(12) ptr @strdup(ptr noundef nonnull @.str) #15
  br label %46

46:                                               ; preds = %40, %44, %7
  %.0 = phi ptr [ %8, %7 ], [ %45, %44 ], [ %.pre22, %40 ]
  call void @llvm.lifetime.end.p0(i64 8, ptr nonnull %3) #15
  call void @llvm.lifetime.end.p0(i64 8, ptr nonnull %2) #15
  ret ptr %.0
}